target datalayout = "e-m:e-p270:32:32-p271:32:32-p272:64:64-i64:64-i128:128-f80:128-n8:16:32:64-S128"
target triple = "x86_64-pc-linux-gnu"

%struct._dcerpc_info = type { ptr, i32, i64, i8, i8, i8, i32, i32, i32, i32, i32, i32, i32, i32, ptr, ptr, ptr, ptr, %struct.anon }
%struct.anon = type { i8, ptr, ptr, ptr, i8 }

@.str.1 = private unnamed_addr constant [29 x i8] c"%s:%u: failed assertion \22%s\22\00", align 1
@.str.2 = private unnamed_addr constant [32 x i8] c"epan/dissectors/packet-dcerpc.c\00", align 1
@hf_dcerpc_array_offset = internal global i32 0, align 4
@hf_dcerpc_array_actual_count = internal global i32 0, align 4
@hf_dcerpc_array_max_count = internal global i32 0, align 4
@.str.7 = private unnamed_addr constant [21 x i8] c"len <= (4294967295U)\00", align 1

; Function Attrs: null_pointer_is_valid sspstrong uwtable
define hidden i32 @dissect_ndr_byte_array(ptr noundef %0, i32 noundef %1, ptr noundef %2, ptr noundef %3, ptr noundef %4, ptr noundef %5) #0 {
  %7 = alloca i32, align 4
  %8 = alloca ptr, align 8
  %9 = alloca i32, align 4
  %10 = alloca ptr, align 8
  %11 = alloca ptr, align 8
  %12 = alloca ptr, align 8
  %13 = alloca ptr, align 8
  %14 = alloca i64, align 8
  %15 = alloca i32, align 4
  store ptr %0, ptr %8, align 8
  store i32 %1, ptr %9, align 4
  store ptr %2, ptr %10, align 8
  store ptr %3, ptr %11, align 8
  store ptr %4, ptr %12, align 8
  store ptr %5, ptr %13, align 8
  call void @llvm.lifetime.start.p0(i64 8, ptr %14) #19
  %16 = load ptr, ptr %12, align 8
  %17 = getelementptr inbounds nuw %struct._dcerpc_info, ptr %16, i32 0, i32 4
  %18 = load i8, ptr %17, align 1, !range !11, !noundef !12
  %19 = trunc i8 %18 to i1
  br i1 %19, label %20, label %22

20:                                               ; preds = %6
  %21 = load i32, ptr %9, align 4
  store i32 %21, ptr %7, align 4
  store i32 1, ptr %15, align 4
  br label %71

22:                                               ; preds = %6
  %23 = load ptr, ptr %8, align 8
  %24 = load i32, ptr %9, align 4
  %25 = load ptr, ptr %10, align 8
  %26 = load ptr, ptr %11, align 8
  %27 = load ptr, ptr %12, align 8
  %28 = load ptr, ptr %13, align 8
  %29 = load i32, ptr @hf_dcerpc_array_max_count, align 4
  %30 = call i32 @dissect_ndr_uint3264(ptr noundef %23, i32 noundef %24, ptr noundef %25, ptr noundef %26, ptr noundef %27, ptr noundef %28, i32 noundef %29, ptr noundef null)
  store i32 %30, ptr %9, align 4
  %31 = load ptr, ptr %8, align 8
  %32 = load i32, ptr %9, align 4
  %33 = load ptr, ptr %10, align 8
  %34 = load ptr, ptr %11, align 8
  %35 = load ptr, ptr %12, align 8
  %36 = load ptr, ptr %13, align 8
  %37 = load i32, ptr @hf_dcerpc_array_offset, align 4
  %38 = call i32 @dissect_ndr_uint3264(ptr noundef %31, i32 noundef %32, ptr noundef %33, ptr noundef %34, ptr noundef %35, ptr noundef %36, i32 noundef %37, ptr noundef null)
  store i32 %38, ptr %9, align 4
  %39 = load ptr, ptr %8, align 8
  %40 = load i32, ptr %9, align 4
  %41 = load ptr, ptr %10, align 8
  %42 = load ptr, ptr %11, align 8
  %43 = load ptr, ptr %12, align 8
  %44 = load ptr, ptr %13, align 8
  %45 = load i32, ptr @hf_dcerpc_array_actual_count, align 4
  %46 = call i32 @dissect_ndr_uint3264(ptr noundef %39, i32 noundef %40, ptr noundef %41, ptr noundef %42, ptr noundef %43, ptr noundef %44, i32 noundef %45, ptr noundef %14)
  store i32 %46, ptr %9, align 4
  %47 = load i64, ptr %14, align 8
  %48 = icmp ule i64 %47, 4294967295
  br i1 %48, label %49, label %50

49:                                               ; preds = %22
  br label %52

50:                                               ; preds = %22
  call void (ptr, ...) @proto_report_dissector_bug(ptr noundef @.str.1, ptr noundef @.str.2, i32 noundef 2667, ptr noundef @.str.7) #24
  unreachable

51:                                               ; No predecessors!
  br label %52

52:                                               ; preds = %51, %49
  %53 = load i64, ptr %14, align 8
  %54 = icmp ne i64 %53, 0
  br i1 %54, label %55, label %65

55:                                               ; preds = %52
  %56 = load ptr, ptr %11, align 8
  %57 = load ptr, ptr %12, align 8
  %58 = getelementptr inbounds nuw %struct._dcerpc_info, ptr %57, i32 0, i32 13
  %59 = load i32, ptr %58, align 8
  %60 = load ptr, ptr %8, align 8
  %61 = load i32, ptr %9, align 4
  %62 = load i64, ptr %14, align 8
  %63 = trunc i64 %62 to i32
  %64 = call ptr @proto_tree_add_item(ptr noundef %56, i32 noundef %59, ptr noundef %60, i32 noundef %61, i32 noundef %63, i32 noundef 0)
  br label %65

65:                                               ; preds = %55, %52
  %66 = load i64, ptr %14, align 8
  %67 = trunc i64 %66 to i32
  %68 = load i32, ptr %9, align 4
  %69 = add i32 %68, %67
  store i32 %69, ptr %9, align 4
  %70 = load i32, ptr %9, align 4
  store i32 %70, ptr %7, align 4
  store i32 1, ptr %15, align 4
  br label %71

71:                                               ; preds = %65, %20
  call void @llvm.lifetime.end.p0(i64 8, ptr %14) #19
  %72 = load i32, ptr %7, align 4
  ret i32 %72
}