; Function Attrs: null_pointer_is_valid sspstrong uwtable
define hidden i32 @dissect_ndr_byte_array(ptr noundef %0, i32 noundef %1, ptr noundef %2, ptr noundef %3, ptr noundef %4, ptr noundef %5) local_unnamed_addr #0 {
  %7 = alloca i64, align 8
  call void @llvm.lifetime.start.p0(i64 8, ptr nonnull %7) #19
  %8 = getelementptr inbounds nuw i8, ptr %4, i64 25
  %9 = load i8, ptr %8, align 1, !range !11, !noundef !12
  %10 = trunc nuw i8 %9 to i1
  br i1 %10, label %31, label %11

11:                                               ; preds = %6
  %12 = load i32, ptr @hf_dcerpc_array_max_count, align 4
  %13 = tail call i32 @dissect_ndr_uint3264(ptr noundef %0, i32 noundef %1, ptr noundef %2, ptr noundef %3, ptr noundef %4, ptr noundef %5, i32 noundef %12, ptr noundef null)
  %14 = load i32, ptr @hf_dcerpc_array_offset, align 4
  %15 = tail call i32 @dissect_ndr_uint3264(ptr noundef %0, i32 noundef %13, ptr noundef %2, ptr noundef %3, ptr noundef %4, ptr noundef %5, i32 noundef %14, ptr noundef null)
  %16 = load i32, ptr @hf_dcerpc_array_actual_count, align 4
  %17 = call i32 @dissect_ndr_uint3264(ptr noundef %0, i32 noundef %15, ptr noundef %2, ptr noundef %3, ptr noundef %4, ptr noundef %5, i32 noundef %16, ptr noundef nonnull %7)
  %18 = load i64, ptr %7, align 8
  %19 = icmp ult i64 %18, 4294967296
  br i1 %19, label %21, label %20

20:                                               ; preds = %11
  call void (ptr, ...) @proto_report_dissector_bug(ptr noundef nonnull @.str.1, ptr noundef nonnull @.str.2, i32 noundef 2667, ptr noundef nonnull @.str.7) #21
  unreachable

21:                                               ; preds = %11
  %.not = icmp eq i64 %18, 0
  br i1 %.not, label %28, label %22

22:                                               ; preds = %21
  %23 = getelementptr inbounds nuw i8, ptr %4, i64 56
  %24 = load i32, ptr %23, align 8
  %25 = trunc nuw i64 %18 to i32
  %26 = call ptr @proto_tree_add_item(ptr noundef %3, i32 noundef %24, ptr noundef %0, i32 noundef %17, i32 noundef %25, i32 noundef 0)
  %.pre = load i64, ptr %7, align 8
  %27 = trunc i64 %.pre to i32
  br label %28

28:                                               ; preds = %22, %21
  %29 = phi i32 [ %27, %22 ], [ 0, %21 ]
  %30 = add i32 %17, %29
  br label %31

31:                                               ; preds = %6, %28
  %.0 = phi i32 [ %30, %28 ], [ %1, %6 ]
  call void @llvm.lifetime.end.p0(i64 8, ptr nonnull %7) #19
  ret i32 %.0
}